target datalayout = "e-m:e-p270:32:32-p271:32:32-p272:64:64-i64:64-i128:128-f80:128-n8:16:32:64-S128"
target triple = "x86_64-pc-linux-gnu"

%struct.lua_State = type { i8, i8, i8, i8, i8, i8, i8, ptr, ptr, ptr, ptr, ptr, ptr, ptr, ptr, i32, i32, i16, i16, i32, ptr, ptr, ptr, ptr, ptr }
%struct.CallInfo = type { ptr, ptr, ptr, ptr, i32, i32 }
%struct.Proto = type { i8, i8, i8, i8, i8, i8, i8, i8, ptr, ptr, ptr, ptr, ptr, i64, ptr, ptr, ptr, ptr, ptr, ptr, ptr, ptr, ptr, ptr, i32, i32, i32, i32, i32, i32, i32, i32, i32, i32 }
%struct.lua_TValue = type { %union.Value, [1 x i32], i32 }
%union.Value = type { ptr }
%struct.Closure = type { i8, i8, i8, i8, i8, i8, i8, ptr, ptr, %union.anon.0 }
%union.anon.0 = type { %struct.anon }
%struct.anon = type { ptr, ptr, ptr, [1 x %struct.lua_TValue] }
%struct.anon.1 = type { ptr, [1 x %struct.lua_TValue] }
%struct.TString = type { i8, i8, i8, i16, ptr, i32, i32, [1 x i8] }

@.str.22 = private unnamed_addr constant [10 x i8] c"%s:%d: %s\00", align 1

; Function Attrs: mustprogress nounwind uwtable
define hidden noundef i32 @_Z12luaG_getlineP5Protoi(ptr noundef %0, i32 noundef %1) #2 {
  %3 = alloca i32, align 4
  %4 = alloca ptr, align 8
  %5 = alloca i32, align 4
  store ptr %0, ptr %4, align 8, !tbaa !27
  store i32 %1, ptr %5, align 4, !tbaa !9
  %6 = load ptr, ptr %4, align 8, !tbaa !27
  %7 = getelementptr inbounds nuw %struct.Proto, ptr %6, i32 0, i32 14
  %8 = load ptr, ptr %7, align 8, !tbaa !94
  %9 = icmp ne ptr %8, null
  br i1 %9, label %11, label %10

10:                                               ; preds = %2
  store i32 0, ptr %3, align 4
  br label %32

11:                                               ; preds = %2
  %12 = load ptr, ptr %4, align 8, !tbaa !27
  %13 = getelementptr inbounds nuw %struct.Proto, ptr %12, i32 0, i32 15
  %14 = load ptr, ptr %13, align 8, !tbaa !106
  %15 = load i32, ptr %5, align 4, !tbaa !9
  %16 = load ptr, ptr %4, align 8, !tbaa !27
  %17 = getelementptr inbounds nuw %struct.Proto, ptr %16, i32 0, i32 30
  %18 = load i32, ptr %17, align 8, !tbaa !107
  %19 = ashr i32 %15, %18
  %20 = sext i32 %19 to i64
  %21 = getelementptr inbounds i32, ptr %14, i64 %20
  %22 = load i32, ptr %21, align 4, !tbaa !9
  %23 = load ptr, ptr %4, align 8, !tbaa !27
  %24 = getelementptr inbounds nuw %struct.Proto, ptr %23, i32 0, i32 14
  %25 = load ptr, ptr %24, align 8, !tbaa !94
  %26 = load i32, ptr %5, align 4, !tbaa !9
  %27 = sext i32 %26 to i64
  %28 = getelementptr inbounds i8, ptr %25, i64 %27
  %29 = load i8, ptr %28, align 1, !tbaa !37
  %30 = zext i8 %29 to i32
  %31 = add nsw i32 %22, %30
  store i32 %31, ptr %3, align 4
  br label %32

32:                                               ; preds = %11, %10
  %33 = load i32, ptr %3, align 4
  ret i32 %33
}

; Function Attrs: mustprogress nounwind uwtable
define internal noundef i32 @_ZL9currentpcP9lua_StateP8CallInfo(ptr noundef %0, ptr noundef %1) #2 {
  %3 = alloca ptr, align 8
  %4 = alloca ptr, align 8
  store ptr %0, ptr %3, align 8, !tbaa !4
  store ptr %1, ptr %4, align 8, !tbaa !23
  %5 = load ptr, ptr %4, align 8, !tbaa !23
  %6 = getelementptr inbounds nuw %struct.CallInfo, ptr %5, i32 0, i32 3
  %7 = load ptr, ptr %6, align 8, !tbaa !50
  %8 = icmp ne ptr %7, null
  br i1 %8, label %9, label %29

9:                                                ; preds = %2
  %10 = load ptr, ptr %4, align 8, !tbaa !23
  %11 = getelementptr inbounds nuw %struct.CallInfo, ptr %10, i32 0, i32 3
  %12 = load ptr, ptr %11, align 8, !tbaa !50
  %13 = load ptr, ptr %4, align 8, !tbaa !23
  %14 = getelementptr inbounds nuw %struct.CallInfo, ptr %13, i32 0, i32 1
  %15 = load ptr, ptr %14, align 8, !tbaa !40
  %16 = getelementptr inbounds nuw %struct.lua_TValue, ptr %15, i32 0, i32 0
  %17 = load ptr, ptr %16, align 8, !tbaa !37
  %18 = getelementptr inbounds nuw %struct.Closure, ptr %17, i32 0, i32 9
  %19 = getelementptr inbounds nuw %struct.anon.1, ptr %18, i32 0, i32 0
  %20 = load ptr, ptr %19, align 8, !tbaa !37
  %21 = getelementptr inbounds nuw %struct.Proto, ptr %20, i32 0, i32 9
  %22 = load ptr, ptr %21, align 8, !tbaa !51
  %23 = ptrtoint ptr %12 to i64
  %24 = ptrtoint ptr %22 to i64
  %25 = sub i64 %23, %24
  %26 = sdiv exact i64 %25, 4
  %27 = trunc i64 %26 to i32
  %28 = sub nsw i32 %27, 1
  br label %30

29:                                               ; preds = %2
  br label %30

30:                                               ; preds = %29, %9
  %31 = phi i32 [ %28, %9 ], [ 0, %29 ]
  ret i32 %31
}

; Function Attrs: mustprogress nounwind uwtable
define internal noundef i32 @_ZL11currentlineP9lua_StateP8CallInfo(ptr noundef %0, ptr noundef %1) #2 {
  %3 = alloca ptr, align 8
  %4 = alloca ptr, align 8
  store ptr %0, ptr %3, align 8, !tbaa !4
  store ptr %1, ptr %4, align 8, !tbaa !23
  %5 = load ptr, ptr %4, align 8, !tbaa !23
  %6 = getelementptr inbounds nuw %struct.CallInfo, ptr %5, i32 0, i32 1
  %7 = load ptr, ptr %6, align 8, !tbaa !40
  %8 = getelementptr inbounds nuw %struct.lua_TValue, ptr %7, i32 0, i32 0
  %9 = load ptr, ptr %8, align 8, !tbaa !37
  %10 = getelementptr inbounds nuw %struct.Closure, ptr %9, i32 0, i32 9
  %11 = getelementptr inbounds nuw %struct.anon.1, ptr %10, i32 0, i32 0
  %12 = load ptr, ptr %11, align 8, !tbaa !37
  %13 = load ptr, ptr %3, align 8, !tbaa !4
  %14 = load ptr, ptr %4, align 8, !tbaa !23
  %15 = call noundef i32 @_ZL9currentpcP9lua_StateP8CallInfo(ptr noundef %13, ptr noundef %14)
  %16 = call noundef i32 @_Z12luaG_getlineP5Protoi(ptr noundef %12, i32 noundef %15)
  ret i32 %16
}

; Function Attrs: mustprogress nounwind uwtable
define internal noundef ptr @_ZL11getluaprotoP8CallInfo(ptr noundef %0) #2 {
  %2 = alloca ptr, align 8
  store ptr %0, ptr %2, align 8, !tbaa !23
  %3 = load ptr, ptr %2, align 8, !tbaa !23
  %4 = getelementptr inbounds nuw %struct.CallInfo, ptr %3, i32 0, i32 1
  %5 = load ptr, ptr %4, align 8, !tbaa !40
  %6 = getelementptr inbounds nuw %struct.lua_TValue, ptr %5, i32 0, i32 2
  %7 = load i32, ptr %6, align 4, !tbaa !41
  %8 = icmp eq i32 %7, 7
  br i1 %8, label %9, label %27

9:                                                ; preds = %1
  %10 = load ptr, ptr %2, align 8, !tbaa !23
  %11 = getelementptr inbounds nuw %struct.CallInfo, ptr %10, i32 0, i32 1
  %12 = load ptr, ptr %11, align 8, !tbaa !40
  %13 = getelementptr inbounds nuw %struct.lua_TValue, ptr %12, i32 0, i32 0
  %14 = load ptr, ptr %13, align 8, !tbaa !37
  %15 = getelementptr inbounds nuw %struct.Closure, ptr %14, i32 0, i32 3
  %16 = load i8, ptr %15, align 1, !tbaa !43
  %17 = icmp ne i8 %16, 0
  br i1 %17, label %27, label %18

18:                                               ; preds = %9
  %19 = load ptr, ptr %2, align 8, !tbaa !23
  %20 = getelementptr inbounds nuw %struct.CallInfo, ptr %19, i32 0, i32 1
  %21 = load ptr, ptr %20, align 8, !tbaa !40
  %22 = getelementptr inbounds nuw %struct.lua_TValue, ptr %21, i32 0, i32 0
  %23 = load ptr, ptr %22, align 8, !tbaa !37
  %24 = getelementptr inbounds nuw %struct.Closure, ptr %23, i32 0, i32 9
  %25 = getelementptr inbounds nuw %struct.anon.1, ptr %24, i32 0, i32 0
  %26 = load ptr, ptr %25, align 8, !tbaa !37
  br label %28

27:                                               ; preds = %9, %1
  br label %28

28:                                               ; preds = %27, %18
  %29 = phi ptr [ %26, %18 ], [ null, %27 ]
  ret ptr %29
}

; Function Attrs: mustprogress uwtable
define internal void @_ZL9pusherrorP9lua_StatePKc(ptr noundef %0, ptr noundef %1) #0 {
  %3 = alloca ptr, align 8
  %4 = alloca ptr, align 8
  %5 = alloca ptr, align 8
  %6 = alloca ptr, align 8
  %7 = alloca [256 x i8], align 16
  %8 = alloca ptr, align 8
  %9 = alloca i32, align 4
  store ptr %0, ptr %3, align 8, !tbaa !4
  store ptr %1, ptr %4, align 8, !tbaa !49
  call void @llvm.lifetime.start.p0(i64 8, ptr %5) #11
  %10 = load ptr, ptr %3, align 8, !tbaa !4
  %11 = getelementptr inbounds nuw %struct.lua_State, ptr %10, i32 0, i32 10
  %12 = load ptr, ptr %11, align 8, !tbaa !11
  store ptr %12, ptr %5, align 8, !tbaa !23
  %13 = load ptr, ptr %5, align 8, !tbaa !23
  %14 = getelementptr inbounds nuw %struct.CallInfo, ptr %13, i32 0, i32 1
  %15 = load ptr, ptr %14, align 8, !tbaa !40
  %16 = getelementptr inbounds nuw %struct.lua_TValue, ptr %15, i32 0, i32 2
  %17 = load i32, ptr %16, align 4, !tbaa !41
  %18 = icmp eq i32 %17, 7
  br i1 %18, label %19, label %50

19:                                               ; preds = %2
  %20 = load ptr, ptr %5, align 8, !tbaa !23
  %21 = getelementptr inbounds nuw %struct.CallInfo, ptr %20, i32 0, i32 1
  %22 = load ptr, ptr %21, align 8, !tbaa !40
  %23 = getelementptr inbounds nuw %struct.lua_TValue, ptr %22, i32 0, i32 0
  %24 = load ptr, ptr %23, align 8, !tbaa !37
  %25 = getelementptr inbounds nuw %struct.Closure, ptr %24, i32 0, i32 3
  %26 = load i8, ptr %25, align 1, !tbaa !43
  %27 = icmp ne i8 %26, 0
  br i1 %27, label %50, label %28

28:                                               ; preds = %19
  call void @llvm.lifetime.start.p0(i64 8, ptr %6) #11
  %29 = load ptr, ptr %5, align 8, !tbaa !23
  %30 = call noundef ptr @_ZL11getluaprotoP8CallInfo(ptr noundef %29)
  %31 = getelementptr inbounds nuw %struct.Proto, ptr %30, i32 0, i32 18
  %32 = load ptr, ptr %31, align 8, !tbaa !66
  store ptr %32, ptr %6, align 8, !tbaa !67
  call void @llvm.lifetime.start.p0(i64 256, ptr %7) #11
  call void @llvm.lifetime.start.p0(i64 8, ptr %8) #11
  %33 = getelementptr inbounds [256 x i8], ptr %7, i64 0, i64 0
  %34 = load ptr, ptr %6, align 8, !tbaa !67
  %35 = getelementptr inbounds nuw %struct.TString, ptr %34, i32 0, i32 7
  %36 = getelementptr inbounds [1 x i8], ptr %35, i64 0, i64 0
  %37 = load ptr, ptr %6, align 8, !tbaa !67
  %38 = getelementptr inbounds nuw %struct.TString, ptr %37, i32 0, i32 6
  %39 = load i32, ptr %38, align 4, !tbaa !69
  %40 = zext i32 %39 to i64
  %41 = call noundef ptr @_Z12luaO_chunkidPcmPKcm(ptr noundef %33, i64 noundef 256, ptr noundef %36, i64 noundef %40)
  store ptr %41, ptr %8, align 8, !tbaa !49
  call void @llvm.lifetime.start.p0(i64 4, ptr %9) #11
  %42 = load ptr, ptr %3, align 8, !tbaa !4
  %43 = load ptr, ptr %5, align 8, !tbaa !23
  %44 = call noundef i32 @_ZL11currentlineP9lua_StateP8CallInfo(ptr noundef %42, ptr noundef %43)
  store i32 %44, ptr %9, align 4, !tbaa !9
  %45 = load ptr, ptr %3, align 8, !tbaa !4
  %46 = load ptr, ptr %8, align 8, !tbaa !49
  %47 = load i32, ptr %9, align 4, !tbaa !9
  %48 = load ptr, ptr %4, align 8, !tbaa !49
  %49 = call noundef ptr (ptr, ptr, ...) @_Z16luaO_pushfstringP9lua_StatePKcz(ptr noundef %45, ptr noundef @.str.22, ptr noundef %46, i32 noundef %47, ptr noundef %48)
  call void @llvm.lifetime.end.p0(i64 4, ptr %9) #11
  call void @llvm.lifetime.end.p0(i64 8, ptr %8) #11
  call void @llvm.lifetime.end.p0(i64 256, ptr %7) #11
  call void @llvm.lifetime.end.p0(i64 8, ptr %6) #11
  br label %53

50:                                               ; preds = %19, %2
  %51 = load ptr, ptr %3, align 8, !tbaa !4
  %52 = load ptr, ptr %4, align 8, !tbaa !49
  call void @_Z14lua_pushstringP9lua_StatePKc(ptr noundef %51, ptr noundef %52)
  br label %53

53:                                               ; preds = %50, %28
  call void @llvm.lifetime.end.p0(i64 8, ptr %5) #11
  ret void
}