; Function Attrs: mustprogress uwtable
define internal fastcc void @_ZL9pusherrorP9lua_StatePKc(ptr noundef %0, ptr noundef %1) unnamed_addr #0 {
  %3 = alloca [256 x i8], align 16
  %4 = getelementptr inbounds nuw i8, ptr %0, i64 32
  %5 = load ptr, ptr %4, align 8, !tbaa !4
  %6 = getelementptr inbounds nuw i8, ptr %5, i64 8
  %7 = load ptr, ptr %6, align 8, !tbaa !23
  %8 = getelementptr inbounds nuw i8, ptr %7, i64 12
  %9 = load i32, ptr %8, align 4, !tbaa !24
  %10 = icmp eq i32 %9, 7
  br i1 %10, label %11, label %53

11:                                               ; preds = %2
  %12 = load ptr, ptr %7, align 8, !tbaa !26
  %13 = getelementptr inbounds nuw i8, ptr %12, i64 3
  %14 = load i8, ptr %13, align 1, !tbaa !27
  %.not = icmp eq i8 %14, 0
  br i1 %.not, label %_ZL11getluaprotoP8CallInfo.exit, label %53

_ZL11getluaprotoP8CallInfo.exit:                  ; preds = %11
  %15 = getelementptr inbounds nuw i8, ptr %12, i64 24
  %16 = load ptr, ptr %15, align 8, !tbaa !26
  %17 = getelementptr inbounds nuw i8, ptr %16, i64 88
  %18 = load ptr, ptr %17, align 8, !tbaa !53
  call void @llvm.lifetime.start.p0(i64 256, ptr nonnull %3) #16
  %19 = getelementptr inbounds nuw i8, ptr %18, i64 24
  %20 = getelementptr inbounds nuw i8, ptr %18, i64 20
  %21 = load i32, ptr %20, align 4, !tbaa !55
  %22 = zext i32 %21 to i64
  %23 = call noundef ptr @_Z12luaO_chunkidPcmPKcm(ptr noundef nonnull %3, i64 noundef 256, ptr noundef nonnull %19, i64 noundef %22)
  %.val13 = load ptr, ptr %6, align 8, !tbaa !23
  %24 = getelementptr i8, ptr %5, i64 24
  %.val14 = load ptr, ptr %24, align 8, !tbaa !39
  %.val13.val = load ptr, ptr %.val13, align 8, !tbaa !26
  %25 = getelementptr i8, ptr %.val13.val, i64 24
  %.val13.val.val = load ptr, ptr %25, align 8, !tbaa !26
  %.not.i.i = icmp eq ptr %.val14, null
  br i1 %.not.i.i, label %_ZL9currentpcP9lua_StateP8CallInfo.exit.i, label %26

26:                                               ; preds = %_ZL11getluaprotoP8CallInfo.exit
  %27 = getelementptr inbounds nuw i8, ptr %.val13.val.val, i64 16
  %28 = load ptr, ptr %27, align 8, !tbaa !40
  %29 = ptrtoint ptr %.val14 to i64
  %30 = ptrtoint ptr %28 to i64
  %31 = sub i64 %29, %30
  %32 = lshr exact i64 %31, 2
  %33 = trunc i64 %32 to i32
  %34 = add nsw i32 %33, -1
  br label %_ZL9currentpcP9lua_StateP8CallInfo.exit.i

_ZL9currentpcP9lua_StateP8CallInfo.exit.i:        ; preds = %26, %_ZL11getluaprotoP8CallInfo.exit
  %35 = phi i32 [ %34, %26 ], [ 0, %_ZL11getluaprotoP8CallInfo.exit ]
  %36 = getelementptr inbounds nuw i8, ptr %.val13.val.val, i64 56
  %37 = load ptr, ptr %36, align 8, !tbaa !57
  %.not.i3.i = icmp eq ptr %37, null
  br i1 %.not.i3.i, label %_ZL11currentlineP9lua_StateP8CallInfo.exit, label %38

38:                                               ; preds = %_ZL9currentpcP9lua_StateP8CallInfo.exit.i
  %39 = getelementptr inbounds nuw i8, ptr %.val13.val.val, i64 64
  %40 = load ptr, ptr %39, align 8, !tbaa !58
  %41 = getelementptr inbounds nuw i8, ptr %.val13.val.val, i64 160
  %42 = load i32, ptr %41, align 8, !tbaa !59
  %43 = ashr i32 %35, %42
  %44 = sext i32 %43 to i64
  %45 = getelementptr inbounds i32, ptr %40, i64 %44
  %46 = load i32, ptr %45, align 4, !tbaa !46
  %47 = sext i32 %35 to i64
  %48 = getelementptr inbounds i8, ptr %37, i64 %47
  %49 = load i8, ptr %48, align 1, !tbaa !26
  %50 = zext i8 %49 to i32
  %51 = add nsw i32 %46, %50
  br label %_ZL11currentlineP9lua_StateP8CallInfo.exit

_ZL11currentlineP9lua_StateP8CallInfo.exit:       ; preds = %_ZL9currentpcP9lua_StateP8CallInfo.exit.i, %38
  %.0.i.i = phi i32 [ %51, %38 ], [ 0, %_ZL9currentpcP9lua_StateP8CallInfo.exit.i ]
  %52 = call noundef ptr (ptr, ptr, ...) @_Z16luaO_pushfstringP9lua_StatePKcz(ptr noundef nonnull %0, ptr noundef nonnull @.str.22, ptr noundef %23, i32 noundef %.0.i.i, ptr noundef %1)
  call void @llvm.lifetime.end.p0(i64 256, ptr nonnull %3) #16
  br label %54

53:                                               ; preds = %11, %2
  tail call void @_Z14lua_pushstringP9lua_StatePKc(ptr noundef nonnull %0, ptr noundef %1)
  br label %54

54:                                               ; preds = %53, %_ZL11currentlineP9lua_StateP8CallInfo.exit
  ret void
}